; Function Attrs: mustprogress uwtable
define noundef double @_ZNK8QuantLib15LinearTsrPricer11capletPriceEd(ptr noundef nonnull align 8 dereferenceable(360) %this, double noundef %effectiveCap) unnamed_addr #7 align 2 {
entry:
  %fixingDate_ = getelementptr inbounds nuw i8, ptr %this, i64 136
  %today_ = getelementptr inbounds nuw i8, ptr %this, i64 120
  %0 = load i64, ptr %fixingDate_, align 8, !tbaa !139
  %1 = load i64, ptr %today_, align 8, !tbaa !139
  %cmp.i.not = icmp sgt i64 %0, %1
  br i1 %cmp.i.not, label %if.else, label %if.then

if.then:                                          ; preds = %entry
  %coupon_ = getelementptr inbounds nuw i8, ptr %this, i64 112
  %2 = load ptr, ptr %coupon_, align 8, !tbaa !108
  %swapIndex_.i = getelementptr inbounds nuw i8, ptr %2, i64 176
  %3 = load ptr, ptr %swapIndex_.i, align 8, !tbaa !120
  %cmp.not.i = icmp eq ptr %3, null
  br i1 %cmp.not.i, label %cond.false.i, label %_ZNK5boost10shared_ptrIN8QuantLib9SwapIndexEEptEv.exit, !prof !58

cond.false.i:                                     ; preds = %if.then
  tail call void @_ZN5boost16assertion_failedEPKcS1_S1_l(ptr noundef nonnull @.str.15, ptr noundef nonnull @__PRETTY_FUNCTION__._ZNK5boost10shared_ptrIN8QuantLib9SwapIndexEEptEv, ptr noundef nonnull @.str.16, i64 noundef 784)
  %.pre.i = load ptr, ptr %swapIndex_.i, align 8, !tbaa !120
  br label %_ZNK5boost10shared_ptrIN8QuantLib9SwapIndexEEptEv.exit

_ZNK5boost10shared_ptrIN8QuantLib9SwapIndexEEptEv.exit: ; preds = %if.then, %cond.false.i
  %4 = phi ptr [ %3, %if.then ], [ %.pre.i, %cond.false.i ]
  %vtable = load ptr, ptr %4, align 8, !tbaa !35
  %vfn = getelementptr inbounds i8, ptr %vtable, i64 40
  %5 = load ptr, ptr %vfn, align 8
  %call5 = tail call noundef double %5(ptr noundef nonnull align 8 dereferenceable(240) %4, ptr noundef nonnull align 8 dereferenceable(8) %fixingDate_, i1 noundef zeroext false)
  %sub = fsub double %call5, %effectiveCap
  %cmp.i2 = fcmp olt double %sub, 0.000000e+00
  %.sroa.speculated = select i1 %cmp.i2, double 0.000000e+00, double %sub
  %gearing_ = getelementptr inbounds nuw i8, ptr %this, i64 144
  %6 = load double, ptr %gearing_, align 8, !tbaa !117
  %mul = fmul double %6, %.sroa.speculated
  %7 = load ptr, ptr %coupon_, align 8, !tbaa !108
  %call9 = tail call noundef double @_ZNK8QuantLib6Coupon13accrualPeriodEv(ptr noundef nonnull align 8 dereferenceable(88) %7)
  %discountCurvePaymentDiscount_ = getelementptr inbounds nuw i8, ptr %this, i64 192
  %8 = load double, ptr %discountCurvePaymentDiscount_, align 8, !tbaa !140
  %mul10 = fmul double %call9, %8
  %couponDiscountRatio_ = getelementptr inbounds nuw i8, ptr %this, i64 184
  %9 = load double, ptr %couponDiscountRatio_, align 8, !tbaa !141
  %mul11 = fmul double %mul10, %9
  %mul12 = fmul double %mul, %mul11
  br label %return

if.else:                                          ; preds = %entry
  %call13 = tail call noundef double @_ZNK8QuantLib15LinearTsrPricer14optionletPriceENS_6Option4TypeEd(ptr noundef nonnull align 8 dereferenceable(360) %this, i32 noundef 1, double noundef %effectiveCap)
  %gearing_14 = getelementptr inbounds nuw i8, ptr %this, i64 144
  %10 = load double, ptr %gearing_14, align 8, !tbaa !117
  %mul15 = fmul double %call13, %10
  br label %return

return:                                           ; preds = %if.else, %_ZNK5boost10shared_ptrIN8QuantLib9SwapIndexEEptEv.exit
  %retval.0 = phi double [ %mul12, %_ZNK5boost10shared_ptrIN8QuantLib9SwapIndexEEptEv.exit ], [ %mul15, %if.else ]
  ret double %retval.0
}